; Function Attrs: null_pointer_is_valid sspstrong uwtable
define hidden i32 @frstrans_dissect_struct_EpoqueVector(ptr noundef %0, i32 noundef %1, ptr noundef %2, ptr noundef %3, ptr noundef %4, ptr noundef %5, i32 noundef %6, i32 %7) local_unnamed_addr #0 {
  %9 = getelementptr inbounds nuw i8, ptr %4, i64 25
  %10 = load i8, ptr %9, align 1, !range !6, !noundef !7
  %11 = trunc nuw i8 %10 to i1
  %12 = and i32 %1, 3
  %.not = icmp eq i32 %12, 0
  %or.cond = or i1 %.not, %11
  %13 = and i32 %1, -4
  %14 = add i32 %13, 4
  %.0 = select i1 %or.cond, i32 %1, i32 %14
  %.not74 = icmp eq ptr %3, null
  br i1 %.not74, label %19, label %15

15:                                               ; preds = %8
  %16 = tail call ptr @proto_tree_add_item(ptr noundef nonnull %3, i32 noundef %6, ptr noundef %0, i32 noundef %.0, i32 noundef -1, i32 noundef 0)
  %17 = load i32, ptr @ett_frstrans_frstrans_EpoqueVector, align 4
  %18 = tail call ptr @proto_item_add_subtree(ptr noundef %16, i32 noundef %17)
  br label %19

19:                                               ; preds = %15, %8
  %.072 = phi ptr [ %16, %15 ], [ null, %8 ]
  %.071 = phi ptr [ %18, %15 ], [ null, %8 ]
  %20 = load i32, ptr @hf_frstrans_frstrans_EpoqueVector_machine_guid, align 4
  %21 = tail call i32 @dissect_ndr_uuid_t(ptr noundef %0, i32 noundef %.0, ptr noundef %2, ptr noundef %.071, ptr noundef %4, ptr noundef %5, i32 noundef %20, ptr noundef null)
  %22 = load i32, ptr @hf_frstrans_frstrans_EpoqueVector_year, align 4
  %23 = tail call i32 @PIDL_dissect_uint32(ptr noundef %0, i32 noundef %21, ptr noundef %2, ptr noundef %.071, ptr noundef %4, ptr noundef %5, i32 noundef %22, i32 noundef 0)
  %24 = load i32, ptr @hf_frstrans_frstrans_EpoqueVector_month, align 4
  %25 = tail call i32 @PIDL_dissect_uint32(ptr noundef %0, i32 noundef %23, ptr noundef %2, ptr noundef %.071, ptr noundef %4, ptr noundef %5, i32 noundef %24, i32 noundef 0)
  %26 = load i32, ptr @hf_frstrans_frstrans_EpoqueVector_day_of_week, align 4
  %27 = tail call i32 @PIDL_dissect_uint32(ptr noundef %0, i32 noundef %25, ptr noundef %2, ptr noundef %.071, ptr noundef %4, ptr noundef %5, i32 noundef %26, i32 noundef 0)
  %28 = load i32, ptr @hf_frstrans_frstrans_EpoqueVector_day, align 4
  %29 = tail call i32 @PIDL_dissect_uint32(ptr noundef %0, i32 noundef %27, ptr noundef %2, ptr noundef %.071, ptr noundef %4, ptr noundef %5, i32 noundef %28, i32 noundef 0)
  %30 = load i32, ptr @hf_frstrans_frstrans_EpoqueVector_hour, align 4
  %31 = tail call i32 @PIDL_dissect_uint32(ptr noundef %0, i32 noundef %29, ptr noundef %2, ptr noundef %.071, ptr noundef %4, ptr noundef %5, i32 noundef %30, i32 noundef 0)
  %32 = load i32, ptr @hf_frstrans_frstrans_EpoqueVector_minute, align 4
  %33 = tail call i32 @PIDL_dissect_uint32(ptr noundef %0, i32 noundef %31, ptr noundef %2, ptr noundef %.071, ptr noundef %4, ptr noundef %5, i32 noundef %32, i32 noundef 0)
  %34 = load i32, ptr @hf_frstrans_frstrans_EpoqueVector_second, align 4
  %35 = tail call i32 @PIDL_dissect_uint32(ptr noundef %0, i32 noundef %33, ptr noundef %2, ptr noundef %.071, ptr noundef %4, ptr noundef %5, i32 noundef %34, i32 noundef 0)
  %36 = load i32, ptr @hf_frstrans_frstrans_EpoqueVector_milli_seconds, align 4
  %37 = tail call i32 @PIDL_dissect_uint32(ptr noundef %0, i32 noundef %35, ptr noundef %2, ptr noundef %.071, ptr noundef %4, ptr noundef %5, i32 noundef %36, i32 noundef 0)
  %38 = sub i32 %37, %.0
  tail call void @proto_item_set_len(ptr noundef %.072, i32 noundef %38)
  %39 = getelementptr inbounds nuw i8, ptr %4, i64 64
  %40 = load ptr, ptr %39, align 8
  %41 = getelementptr inbounds nuw i8, ptr %40, i64 96
  %42 = load i32, ptr %41, align 8
  %43 = and i32 %42, 1
  %.not75 = icmp eq i32 %43, 0
  br i1 %.not75, label %51, label %44

44:                                               ; preds = %19
  %45 = load i8, ptr %9, align 1, !range !6, !noundef !7
  %46 = trunc nuw i8 %45 to i1
  %47 = and i32 %37, 3
  %.not76 = icmp eq i32 %47, 0
  %or.cond77 = or i1 %.not76, %46
  br i1 %or.cond77, label %51, label %48

48:                                               ; preds = %44
  %49 = and i32 %37, -4
  %50 = add i32 %49, 4
  br label %51

51:                                               ; preds = %44, %48, %19
  %.1 = phi i32 [ %37, %44 ], [ %50, %48 ], [ %37, %19 ]
  ret i32 %.1
}